target datalayout = "e-m:e-p270:32:32-p271:32:32-p272:64:64-i64:64-i128:128-f80:128-n8:16:32:64-S128"
target triple = "x86_64-pc-linux-gnu"

%struct.CVodeMemRec = type { ptr, double, ptr, ptr, i32, i32, double, double, ptr, i32, i32, ptr, ptr, i32, i32, ptr, i32, i32, double, double, ptr, i32, i32, i32, i32, ptr, ptr, ptr, i32, i32, ptr, ptr, ptr, i32, double, i32, i32, double, ptr, ptr, ptr, i32, ptr, ptr, i32, i32, i32, double, ptr, ptr, ptr, [13 x ptr], ptr, ptr, ptr, ptr, ptr, ptr, ptr, ptr, ptr, [13 x ptr], ptr, ptr, ptr, ptr, [13 x ptr], ptr, ptr, ptr, ptr, ptr, i32, [13 x ptr], ptr, ptr, ptr, ptr, ptr, i32, i32, double, i32, i32, i32, i32, i32, double, double, double, double, double, double, double, double, [14 x double], [6 x double], [13 x double], double, double, double, double, double, double, double, double, i32, double, double, i32, double, double, ptr, i32, i64, i32, i32, i32, double, double, double, double, double, double, double, double, double, double, double, double, i64, i32, i64, i64, i64, i64, i64, i64, i64, i64, i64, ptr, i64, i64, ptr, i64, i64, ptr, i64, i64, i64, i64, i64, i64, i32, double, double, double, i64, i64, i64, i64, i64, i64, ptr, i32, ptr, i32, ptr, i32, ptr, i32, i32, i64, i32, ptr, i32, ptr, ptr, ptr, ptr, ptr, ptr, i32, i32, ptr, ptr, ptr, ptr, ptr, i64, double, i32, i32, i64, double, double, double, i32, i32, double, i32, i32, i32, i32, i32, i32, i32, i32, i32, i32, i32, i32, i32, i32, i32, i32, ptr, i64, i32, [6 x [4 x double]], i32, i64, ptr, i32, ptr, ptr, double, double, double, ptr, ptr, ptr, double, double, i32, i32, i64, ptr, i32, ptr, i32, i32, [13 x double], ptr, ptr, ptr, i32, ptr, i32 }

@.str = private unnamed_addr constant [123 x i8] c"generated/home/dtcxzyw/WorkSpace/Projects/compilers/llvm-opt-benchmark/bench/sundials/sundials/src/cvodes/cvodes_nls_sim.c\00", align 1
@.str.1 = private unnamed_addr constant [26 x i8] c"cvode_mem = NULL illegal.\00", align 1
@__func__.cvNlsLSetupSensSim = private unnamed_addr constant [19 x i8] c"cvNlsLSetupSensSim\00", align 1

; Function Attrs: nounwind uwtable
define internal i32 @cvNlsLSetupSensSim(i32 noundef %0, ptr noundef %1, ptr noundef %2) #0 {
  %4 = alloca i32, align 4
  %5 = alloca i32, align 4
  %6 = alloca ptr, align 8
  %7 = alloca ptr, align 8
  %8 = alloca ptr, align 8
  %9 = alloca i32, align 4
  store i32 %0, ptr %5, align 4
  store ptr %1, ptr %6, align 8
  store ptr %2, ptr %7, align 8
  %10 = load ptr, ptr %7, align 8
  %11 = icmp eq ptr %10, null
  br i1 %11, label %12, label %13

12:                                               ; preds = %3
  call void (ptr, i32, i32, ptr, ptr, ptr, ...) @cvProcessError(ptr noundef null, i32 noundef -21, i32 noundef 303, ptr noundef @__func__.cvNlsLSetupSensSim, ptr noundef @.str, ptr noundef @.str.1)
  store i32 -21, ptr %4, align 4
  br label %80

13:                                               ; preds = %3
  %14 = load ptr, ptr %7, align 8
  store ptr %14, ptr %8, align 8
  %15 = load i32, ptr %5, align 4
  %16 = icmp ne i32 %15, 0
  br i1 %16, label %17, label %20

17:                                               ; preds = %13
  %18 = load ptr, ptr %8, align 8
  %19 = getelementptr inbounds %struct.CVodeMemRec, ptr %18, i32 0, i32 176
  store i32 1, ptr %19, align 8
  br label %20

20:                                               ; preds = %17, %13
  %21 = load ptr, ptr %8, align 8
  %22 = getelementptr inbounds %struct.CVodeMemRec, ptr %21, i32 0, i32 186
  %23 = load ptr, ptr %22, align 8
  %24 = load ptr, ptr %8, align 8
  %25 = load ptr, ptr %8, align 8
  %26 = getelementptr inbounds %struct.CVodeMemRec, ptr %25, i32 0, i32 176
  %27 = load i32, ptr %26, align 8
  %28 = load ptr, ptr %8, align 8
  %29 = getelementptr inbounds %struct.CVodeMemRec, ptr %28, i32 0, i32 53
  %30 = load ptr, ptr %29, align 8
  %31 = load ptr, ptr %8, align 8
  %32 = getelementptr inbounds %struct.CVodeMemRec, ptr %31, i32 0, i32 56
  %33 = load ptr, ptr %32, align 8
  %34 = load ptr, ptr %8, align 8
  %35 = getelementptr inbounds %struct.CVodeMemRec, ptr %34, i32 0, i32 198
  %36 = load ptr, ptr %8, align 8
  %37 = getelementptr inbounds %struct.CVodeMemRec, ptr %36, i32 0, i32 57
  %38 = load ptr, ptr %37, align 8
  %39 = load ptr, ptr %8, align 8
  %40 = getelementptr inbounds %struct.CVodeMemRec, ptr %39, i32 0, i32 58
  %41 = load ptr, ptr %40, align 8
  %42 = load ptr, ptr %8, align 8
  %43 = getelementptr inbounds %struct.CVodeMemRec, ptr %42, i32 0, i32 59
  %44 = load ptr, ptr %43, align 8
  %45 = call i32 %23(ptr noundef %24, i32 noundef %27, ptr noundef %30, ptr noundef %33, ptr noundef %35, ptr noundef %38, ptr noundef %41, ptr noundef %44)
  store i32 %45, ptr %9, align 4
  %46 = load ptr, ptr %8, align 8
  %47 = getelementptr inbounds %struct.CVodeMemRec, ptr %46, i32 0, i32 152
  %48 = load i64, ptr %47, align 8
  %49 = add nsw i64 %48, 1
  store i64 %49, ptr %47, align 8
  %50 = load ptr, ptr %8, align 8
  %51 = getelementptr inbounds %struct.CVodeMemRec, ptr %50, i32 0, i32 198
  %52 = load i32, ptr %51, align 8
  %53 = load ptr, ptr %6, align 8
  store i32 %52, ptr %53, align 4
  %54 = load ptr, ptr %8, align 8
  %55 = getelementptr inbounds %struct.CVodeMemRec, ptr %54, i32 0, i32 192
  store i32 0, ptr %55, align 8
  %56 = load ptr, ptr %8, align 8
  %57 = getelementptr inbounds %struct.CVodeMemRec, ptr %56, i32 0, i32 101
  store double 1.000000e+00, ptr %57, align 8
  %58 = load ptr, ptr %8, align 8
  %59 = getelementptr inbounds %struct.CVodeMemRec, ptr %58, i32 0, i32 99
  %60 = load double, ptr %59, align 8
  %61 = load ptr, ptr %8, align 8
  %62 = getelementptr inbounds %struct.CVodeMemRec, ptr %61, i32 0, i32 100
  store double %60, ptr %62, align 8
  %63 = load ptr, ptr %8, align 8
  %64 = getelementptr inbounds %struct.CVodeMemRec, ptr %63, i32 0, i32 102
  store double 1.000000e+00, ptr %64, align 8
  %65 = load ptr, ptr %8, align 8
  %66 = getelementptr inbounds %struct.CVodeMemRec, ptr %65, i32 0, i32 103
  store double 1.000000e+00, ptr %66, align 8
  %67 = load ptr, ptr %8, align 8
  %68 = getelementptr inbounds %struct.CVodeMemRec, ptr %67, i32 0, i32 132
  %69 = load i64, ptr %68, align 8
  %70 = load ptr, ptr %8, align 8
  %71 = getelementptr inbounds %struct.CVodeMemRec, ptr %70, i32 0, i32 194
  store i64 %69, ptr %71, align 8
  %72 = load i32, ptr %9, align 4
  %73 = icmp slt i32 %72, 0
  br i1 %73, label %74, label %75

74:                                               ; preds = %20
  store i32 -6, ptr %4, align 4
  br label %80

75:                                               ; preds = %20
  %76 = load i32, ptr %9, align 4
  %77 = icmp sgt i32 %76, 0
  br i1 %77, label %78, label %79

78:                                               ; preds = %75
  store i32 902, ptr %4, align 4
  br label %80

79:                                               ; preds = %75
  store i32 0, ptr %4, align 4
  br label %80

80:                                               ; preds = %79, %78, %74, %12
  %81 = load i32, ptr %4, align 4
  ret i32 %81
}