; Function Attrs: nounwind uwtable
define internal range(i32 -21, 903) i32 @cvNlsLSetupSensSim(i32 noundef %0, ptr noundef writeonly captures(none) %1, ptr noundef %2) #0 {
  %4 = icmp eq ptr %2, null
  br i1 %4, label %5, label %6

5:                                                ; preds = %3
  tail call void (ptr, i32, i32, ptr, ptr, ptr, ...) @cvProcessError(ptr noundef null, i32 noundef -21, i32 noundef 303, ptr noundef nonnull @__func__.cvNlsLSetupSensSim, ptr noundef nonnull @.str, ptr noundef nonnull @.str.1) #2
  br label %40

6:                                                ; preds = %3
  %.not = icmp eq i32 %0, 0
  %.phi.trans.insert = getelementptr inbounds nuw i8, ptr %2, i64 1920
  br i1 %.not, label %._crit_edge, label %7

._crit_edge:                                      ; preds = %6
  %.pre = load i32, ptr %.phi.trans.insert, align 8
  br label %8

7:                                                ; preds = %6
  store i32 1, ptr %.phi.trans.insert, align 8
  br label %8

8:                                                ; preds = %._crit_edge, %7
  %9 = phi i32 [ %.pre, %._crit_edge ], [ 1, %7 ]
  %10 = getelementptr inbounds nuw i8, ptr %2, i64 1992
  %11 = load ptr, ptr %10, align 8
  %12 = getelementptr inbounds nuw i8, ptr %2, i64 448
  %13 = load ptr, ptr %12, align 8
  %14 = getelementptr inbounds nuw i8, ptr %2, i64 472
  %15 = load ptr, ptr %14, align 8
  %16 = getelementptr inbounds nuw i8, ptr %2, i64 2080
  %17 = getelementptr inbounds nuw i8, ptr %2, i64 480
  %18 = load ptr, ptr %17, align 8
  %19 = getelementptr inbounds nuw i8, ptr %2, i64 488
  %20 = load ptr, ptr %19, align 8
  %21 = getelementptr inbounds nuw i8, ptr %2, i64 496
  %22 = load ptr, ptr %21, align 8
  %23 = tail call i32 %11(ptr noundef nonnull %2, i32 noundef %9, ptr noundef %13, ptr noundef %15, ptr noundef nonnull %16, ptr noundef %18, ptr noundef %20, ptr noundef %22) #2
  %24 = getelementptr inbounds nuw i8, ptr %2, i64 1736
  %25 = load i64, ptr %24, align 8
  %26 = add nsw i64 %25, 1
  store i64 %26, ptr %24, align 8
  %27 = load i32, ptr %16, align 8
  store i32 %27, ptr %1, align 4
  %28 = getelementptr inbounds nuw i8, ptr %2, i64 2040
  store i32 0, ptr %28, align 8
  %29 = getelementptr inbounds nuw i8, ptr %2, i64 1336
  store double 1.000000e+00, ptr %29, align 8
  %30 = getelementptr inbounds nuw i8, ptr %2, i64 1320
  %31 = load double, ptr %30, align 8
  %32 = getelementptr inbounds nuw i8, ptr %2, i64 1328
  store double %31, ptr %32, align 8
  %33 = getelementptr inbounds nuw i8, ptr %2, i64 1344
  store double 1.000000e+00, ptr %33, align 8
  %34 = getelementptr inbounds nuw i8, ptr %2, i64 1352
  store double 1.000000e+00, ptr %34, align 8
  %35 = getelementptr inbounds nuw i8, ptr %2, i64 1576
  %36 = load i64, ptr %35, align 8
  %37 = getelementptr inbounds nuw i8, ptr %2, i64 2048
  store i64 %36, ptr %37, align 8
  %38 = icmp slt i32 %23, 0
  br i1 %38, label %40, label %39

39:                                               ; preds = %8
  %.not28 = icmp eq i32 %23, 0
  %. = select i1 %.not28, i32 0, i32 902
  br label %40

40:                                               ; preds = %39, %8, %5
  %.0 = phi i32 [ -21, %5 ], [ -6, %8 ], [ %., %39 ]
  ret i32 %.0
}